; Function Attrs: nounwind uwtable
define dso_local i64 @pg_lsn_send(ptr noundef readonly captures(none) %0) local_unnamed_addr #4 {
  %2 = alloca %struct.StringInfoData, align 8
  %3 = getelementptr inbounds nuw i8, ptr %0, i64 32
  %4 = load i64, ptr %3, align 8
  call void @llvm.lifetime.start.p0(i64 24, ptr nonnull %2) #13
  call void @pq_begintypsend(ptr noundef nonnull %2) #13
  call void @enlargeStringInfo(ptr noundef nonnull %2, i32 noundef 8) #13
  call void @llvm.experimental.noalias.scope.decl(metadata !4)
  %5 = call i64 @llvm.bswap.i64(i64 %4)
  %6 = load ptr, ptr %2, align 8, !alias.scope !4
  %7 = getelementptr inbounds nuw i8, ptr %2, i64 8
  %8 = load i32, ptr %7, align 8, !alias.scope !4
  %9 = sext i32 %8 to i64
  %10 = getelementptr inbounds i8, ptr %6, i64 %9
  store i64 %5, ptr %10, align 1, !noalias !4
  %11 = add i32 %8, 8
  store i32 %11, ptr %7, align 8, !alias.scope !4
  %12 = call ptr @pq_endtypsend(ptr noundef nonnull %2) #13
  %13 = ptrtoint ptr %12 to i64
  call void @llvm.lifetime.end.p0(i64 24, ptr nonnull %2) #13
  ret i64 %13
}